; Function Attrs: mustprogress nofree norecurse nosync nounwind willreturn memory(read, argmem: readwrite, inaccessiblemem: none) uwtable
define void @_ZN5arrow7compute8internal14ListValuesTypeEPNS0_13KernelContextERKSt6vectorINS_10TypeHolderESaIS5_EE(ptr noalias writeonly sret(%"class.arrow::Result") align 8 captures(none) initializes((0, 32)) %agg.result, ptr noundef readnone captures(none) %0, ptr noundef nonnull readonly align 8 captures(none) dereferenceable(24) %args) local_unnamed_addr #7 personality ptr @__gxx_personality_v0 {
entry:
  %1 = load ptr, ptr %args, align 8
  %2 = load ptr, ptr %1, align 8
  %children_.i = getelementptr inbounds nuw i8, ptr %2, i64 48
  %3 = load ptr, ptr %children_.i, align 8
  %4 = load ptr, ptr %3, align 8
  %type_.i.i = getelementptr inbounds nuw i8, ptr %4, i64 56
  %5 = load ptr, ptr %type_.i.i, align 8
  store ptr null, ptr %agg.result, align 8
  %storage_.i.i = getelementptr inbounds nuw i8, ptr %agg.result, i64 8
  store ptr %5, ptr %storage_.i.i, align 8
  %owned_type.i.i.i.i = getelementptr inbounds nuw i8, ptr %agg.result, i64 16
  tail call void @llvm.memset.p0.i64(ptr noundef nonnull align 8 dereferenceable(16) %owned_type.i.i.i.i, i8 0, i64 16, i1 false)
  ret void
}